
DMA_Driver.elf:     file format elf32-littlearm

Sections:
Idx Name          Size      VMA       LMA       File off  Algn
  0 .isr_vector   00000194  08000000  08000000  00010000  2**0
                  CONTENTS, ALLOC, LOAD, READONLY, DATA
  1 .text         00000858  08000194  08000194  00010194  2**2
                  CONTENTS, ALLOC, LOAD, READONLY, CODE
  2 .rodata       00000000  080009ec  080009ec  0002003c  2**0
                  CONTENTS, ALLOC, LOAD, DATA
  3 .ARM.extab    00000000  080009ec  080009ec  0002003c  2**0
                  CONTENTS
  4 .ARM          00000000  080009ec  080009ec  0002003c  2**0
                  CONTENTS
  5 .preinit_array 00000000  080009ec  080009ec  0002003c  2**0
                  CONTENTS, ALLOC, LOAD, DATA
  6 .init_array   00000004  080009ec  080009ec  000109ec  2**2
                  CONTENTS, ALLOC, LOAD, DATA
  7 .fini_array   00000004  080009f0  080009f0  000109f0  2**2
                  CONTENTS, ALLOC, LOAD, DATA
  8 .data         0000003c  20000000  080009f4  00020000  2**2
                  CONTENTS, ALLOC, LOAD, DATA
  9 .bss          00000340  2000003c  08000a30  0002003c  2**2
                  ALLOC
 10 ._user_heap_stack 00000604  2000037c  08000a30  0002037c  2**0
                  ALLOC
 11 .ARM.attributes 00000030  00000000  00000000  0002003c  2**0
                  CONTENTS, READONLY
 12 .debug_info   00001c5e  00000000  00000000  0002006c  2**0
                  CONTENTS, READONLY, DEBUGGING, OCTETS
 13 .debug_abbrev 000007f0  00000000  00000000  00021cca  2**0
                  CONTENTS, READONLY, DEBUGGING, OCTETS
 14 .debug_aranges 00000248  00000000  00000000  000224c0  2**3
                  CONTENTS, READONLY, DEBUGGING, OCTETS
 15 .debug_ranges 000001e0  00000000  00000000  00022708  2**3
                  CONTENTS, READONLY, DEBUGGING, OCTETS
 16 .debug_macro  0000e61a  00000000  00000000  000228e8  2**0
                  CONTENTS, READONLY, DEBUGGING, OCTETS
 17 .debug_line   00002928  00000000  00000000  00030f02  2**0
                  CONTENTS, READONLY, DEBUGGING, OCTETS
 18 .debug_str    0007e6a6  00000000  00000000  0003382a  2**0
                  CONTENTS, READONLY, DEBUGGING, OCTETS
 19 .comment      00000053  00000000  00000000  000b1ed0  2**0
                  CONTENTS, READONLY
 20 .debug_frame  000006e8  00000000  00000000  000b1f24  2**2
                  CONTENTS, READONLY, DEBUGGING, OCTETS

Disassembly of section .text:

08000194 <__do_global_dtors_aux>:
 8000194:	b510      	push	{r4, lr}
 8000196:	4c05      	ldr	r4, [pc, #20]	; (80001ac <__do_global_dtors_aux+0x18>)
 8000198:	7823      	ldrb	r3, [r4, #0]
 800019a:	b933      	cbnz	r3, 80001aa <__do_global_dtors_aux+0x16>
 800019c:	4b04      	ldr	r3, [pc, #16]	; (80001b0 <__do_global_dtors_aux+0x1c>)
 800019e:	b113      	cbz	r3, 80001a6 <__do_global_dtors_aux+0x12>
 80001a0:	4804      	ldr	r0, [pc, #16]	; (80001b4 <__do_global_dtors_aux+0x20>)
 80001a2:	f3af 8000 	nop.w
 80001a6:	2301      	movs	r3, #1
 80001a8:	7023      	strb	r3, [r4, #0]
 80001aa:	bd10      	pop	{r4, pc}
 80001ac:	2000003c 	.word	0x2000003c
 80001b0:	00000000 	.word	0x00000000
 80001b4:	080009d4 	.word	0x080009d4

080001b8 <frame_dummy>:
 80001b8:	b508      	push	{r3, lr}
 80001ba:	4b03      	ldr	r3, [pc, #12]	; (80001c8 <frame_dummy+0x10>)
 80001bc:	b11b      	cbz	r3, 80001c6 <frame_dummy+0xe>
 80001be:	4903      	ldr	r1, [pc, #12]	; (80001cc <frame_dummy+0x14>)
 80001c0:	4803      	ldr	r0, [pc, #12]	; (80001d0 <frame_dummy+0x18>)
 80001c2:	f3af 8000 	nop.w
 80001c6:	bd08      	pop	{r3, pc}
 80001c8:	00000000 	.word	0x00000000
 80001cc:	20000040 	.word	0x20000040
 80001d0:	080009d4 	.word	0x080009d4

080001d4 <DMA_init>:
#include "stm32f401cc_interface.h"
#include "DMA.h"
unsigned int *registers[2][7]={{DMA2_S0CR,DMA2_S0NDTR,DMA2_S0FCR,DMA2_S0PAR,DMA2_S0M0AR,DMA2_LIFCR,DMA2_LISR},
							 {DMA_S0CR,DMA_S0NDTR,DMA_S0FCR,DMA_S0PAR,DMA_S0M0AR,DMA_LIFCR,DMA_LISR}};

void DMA_init(unsigned int PID){
 80001d4:	b480      	push	{r7}
 80001d6:	b083      	sub	sp, #12
 80001d8:	af00      	add	r7, sp, #0
 80001da:	6078      	str	r0, [r7, #4]

	RCC_AHB1ENR |= 1<<22; //enable clock
 80001dc:	4b2b      	ldr	r3, [pc, #172]	; (800028c <DMA_init+0xb8>)
 80001de:	6b1b      	ldr	r3, [r3, #48]	; 0x30
 80001e0:	4a2a      	ldr	r2, [pc, #168]	; (800028c <DMA_init+0xb8>)
 80001e2:	f443 0380 	orr.w	r3, r3, #4194304	; 0x400000
 80001e6:	6313      	str	r3, [r2, #48]	; 0x30
	*registers[PID][0] &= ~(1<<0); //disable stream 0 until configured
 80001e8:	4929      	ldr	r1, [pc, #164]	; (8000290 <DMA_init+0xbc>)
 80001ea:	687a      	ldr	r2, [r7, #4]
 80001ec:	4613      	mov	r3, r2
 80001ee:	00db      	lsls	r3, r3, #3
 80001f0:	1a9b      	subs	r3, r3, r2
 80001f2:	009b      	lsls	r3, r3, #2
 80001f4:	440b      	add	r3, r1
 80001f6:	681b      	ldr	r3, [r3, #0]
 80001f8:	6819      	ldr	r1, [r3, #0]
 80001fa:	4825      	ldr	r0, [pc, #148]	; (8000290 <DMA_init+0xbc>)
 80001fc:	687a      	ldr	r2, [r7, #4]
 80001fe:	4613      	mov	r3, r2
 8000200:	00db      	lsls	r3, r3, #3
 8000202:	1a9b      	subs	r3, r3, r2
 8000204:	009b      	lsls	r3, r3, #2
 8000206:	4403      	add	r3, r0
 8000208:	681b      	ldr	r3, [r3, #0]
 800020a:	f021 0201 	bic.w	r2, r1, #1
 800020e:	601a      	str	r2, [r3, #0]
	while (((*registers[PID][0]) & 1)==1){}
 8000210:	bf00      	nop
 8000212:	491f      	ldr	r1, [pc, #124]	; (8000290 <DMA_init+0xbc>)
 8000214:	687a      	ldr	r2, [r7, #4]
 8000216:	4613      	mov	r3, r2
 8000218:	00db      	lsls	r3, r3, #3
 800021a:	1a9b      	subs	r3, r3, r2
 800021c:	009b      	lsls	r3, r3, #2
 800021e:	440b      	add	r3, r1
 8000220:	681b      	ldr	r3, [r3, #0]
 8000222:	681b      	ldr	r3, [r3, #0]
 8000224:	f003 0301 	and.w	r3, r3, #1
 8000228:	2b00      	cmp	r3, #0
 800022a:	d1f2      	bne.n	8000212 <DMA_init+0x3e>
	// interrupt work flow
	*registers[PID][0] |= 1<<4; // transfer complete interrupt enable
 800022c:	4918      	ldr	r1, [pc, #96]	; (8000290 <DMA_init+0xbc>)
 800022e:	687a      	ldr	r2, [r7, #4]
 8000230:	4613      	mov	r3, r2
 8000232:	00db      	lsls	r3, r3, #3
 8000234:	1a9b      	subs	r3, r3, r2
 8000236:	009b      	lsls	r3, r3, #2
 8000238:	440b      	add	r3, r1
 800023a:	681b      	ldr	r3, [r3, #0]
 800023c:	6819      	ldr	r1, [r3, #0]
 800023e:	4814      	ldr	r0, [pc, #80]	; (8000290 <DMA_init+0xbc>)
 8000240:	687a      	ldr	r2, [r7, #4]
 8000242:	4613      	mov	r3, r2
 8000244:	00db      	lsls	r3, r3, #3
 8000246:	1a9b      	subs	r3, r3, r2
 8000248:	009b      	lsls	r3, r3, #2
 800024a:	4403      	add	r3, r0
 800024c:	681b      	ldr	r3, [r3, #0]
 800024e:	f041 0210 	orr.w	r2, r1, #16
 8000252:	601a      	str	r2, [r3, #0]
	switch(PID){//11 and 56
 8000254:	687b      	ldr	r3, [r7, #4]
 8000256:	2b00      	cmp	r3, #0
 8000258:	d003      	beq.n	8000262 <DMA_init+0x8e>
 800025a:	687b      	ldr	r3, [r7, #4]
 800025c:	2b01      	cmp	r3, #1
 800025e:	d007      	beq.n	8000270 <DMA_init+0x9c>
		break;


	}

}
 8000260:	e00d      	b.n	800027e <DMA_init+0xaa>
		*NVIC_ISER1 |= 1<<24;
 8000262:	4b0c      	ldr	r3, [pc, #48]	; (8000294 <DMA_init+0xc0>)
 8000264:	681b      	ldr	r3, [r3, #0]
 8000266:	4a0b      	ldr	r2, [pc, #44]	; (8000294 <DMA_init+0xc0>)
 8000268:	f043 7380 	orr.w	r3, r3, #16777216	; 0x1000000
 800026c:	6013      	str	r3, [r2, #0]
		break;
 800026e:	e006      	b.n	800027e <DMA_init+0xaa>
		*NVIC_ISER0 |= 1<<11;
 8000270:	4b09      	ldr	r3, [pc, #36]	; (8000298 <DMA_init+0xc4>)
 8000272:	681b      	ldr	r3, [r3, #0]
 8000274:	4a08      	ldr	r2, [pc, #32]	; (8000298 <DMA_init+0xc4>)
 8000276:	f443 6300 	orr.w	r3, r3, #2048	; 0x800
 800027a:	6013      	str	r3, [r2, #0]
		break;
 800027c:	bf00      	nop
}
 800027e:	bf00      	nop
 8000280:	370c      	adds	r7, #12
 8000282:	46bd      	mov	sp, r7
 8000284:	f85d 7b04 	ldr.w	r7, [sp], #4
 8000288:	4770      	bx	lr
 800028a:	bf00      	nop
 800028c:	40023800 	.word	0x40023800
 8000290:	20000000 	.word	0x20000000
 8000294:	e000e104 	.word	0xe000e104
 8000298:	e000e100 	.word	0xe000e100

0800029c <DMA_setparams>:

void DMA_setparams(unsigned int PID,unsigned int trig,unsigned int * src_arr,unsigned int * dst_arr,
		unsigned int n_items, unsigned int item_size,unsigned int t_mode, unsigned int t_type, unsigned int fifo){
 800029c:	b490      	push	{r4, r7}
 800029e:	b084      	sub	sp, #16
 80002a0:	af00      	add	r7, sp, #0
 80002a2:	60f8      	str	r0, [r7, #12]
 80002a4:	60b9      	str	r1, [r7, #8]
 80002a6:	607a      	str	r2, [r7, #4]
 80002a8:	603b      	str	r3, [r7, #0]

	*registers[PID][0] |= t_type<<21; // transfer type for memory and peripheral (single or burst)
 80002aa:	497d      	ldr	r1, [pc, #500]	; (80004a0 <DMA_setparams+0x204>)
 80002ac:	68fa      	ldr	r2, [r7, #12]
 80002ae:	4613      	mov	r3, r2
 80002b0:	00db      	lsls	r3, r3, #3
 80002b2:	1a9b      	subs	r3, r3, r2
 80002b4:	009b      	lsls	r3, r3, #2
 80002b6:	440b      	add	r3, r1
 80002b8:	681b      	ldr	r3, [r3, #0]
 80002ba:	6818      	ldr	r0, [r3, #0]
 80002bc:	6a7b      	ldr	r3, [r7, #36]	; 0x24
 80002be:	0559      	lsls	r1, r3, #21
 80002c0:	4c77      	ldr	r4, [pc, #476]	; (80004a0 <DMA_setparams+0x204>)
 80002c2:	68fa      	ldr	r2, [r7, #12]
 80002c4:	4613      	mov	r3, r2
 80002c6:	00db      	lsls	r3, r3, #3
 80002c8:	1a9b      	subs	r3, r3, r2
 80002ca:	009b      	lsls	r3, r3, #2
 80002cc:	4423      	add	r3, r4
 80002ce:	681b      	ldr	r3, [r3, #0]
 80002d0:	ea40 0201 	orr.w	r2, r0, r1
 80002d4:	601a      	str	r2, [r3, #0]
	*registers[PID][0] &= ~(3<<6);
 80002d6:	4972      	ldr	r1, [pc, #456]	; (80004a0 <DMA_setparams+0x204>)
 80002d8:	68fa      	ldr	r2, [r7, #12]
 80002da:	4613      	mov	r3, r2
 80002dc:	00db      	lsls	r3, r3, #3
 80002de:	1a9b      	subs	r3, r3, r2
 80002e0:	009b      	lsls	r3, r3, #2
 80002e2:	440b      	add	r3, r1
 80002e4:	681b      	ldr	r3, [r3, #0]
 80002e6:	6819      	ldr	r1, [r3, #0]
 80002e8:	486d      	ldr	r0, [pc, #436]	; (80004a0 <DMA_setparams+0x204>)
 80002ea:	68fa      	ldr	r2, [r7, #12]
 80002ec:	4613      	mov	r3, r2
 80002ee:	00db      	lsls	r3, r3, #3
 80002f0:	1a9b      	subs	r3, r3, r2
 80002f2:	009b      	lsls	r3, r3, #2
 80002f4:	4403      	add	r3, r0
 80002f6:	681b      	ldr	r3, [r3, #0]
 80002f8:	f021 02c0 	bic.w	r2, r1, #192	; 0xc0
 80002fc:	601a      	str	r2, [r3, #0]
	*registers[PID][0] |= t_mode<<6; // select Memory to memory mode
 80002fe:	4968      	ldr	r1, [pc, #416]	; (80004a0 <DMA_setparams+0x204>)
 8000300:	68fa      	ldr	r2, [r7, #12]
 8000302:	4613      	mov	r3, r2
 8000304:	00db      	lsls	r3, r3, #3
 8000306:	1a9b      	subs	r3, r3, r2
 8000308:	009b      	lsls	r3, r3, #2
 800030a:	440b      	add	r3, r1
 800030c:	681b      	ldr	r3, [r3, #0]
 800030e:	6818      	ldr	r0, [r3, #0]
 8000310:	6a3b      	ldr	r3, [r7, #32]
 8000312:	0199      	lsls	r1, r3, #6
 8000314:	4c62      	ldr	r4, [pc, #392]	; (80004a0 <DMA_setparams+0x204>)
 8000316:	68fa      	ldr	r2, [r7, #12]
 8000318:	4613      	mov	r3, r2
 800031a:	00db      	lsls	r3, r3, #3
 800031c:	1a9b      	subs	r3, r3, r2
 800031e:	009b      	lsls	r3, r3, #2
 8000320:	4423      	add	r3, r4
 8000322:	681b      	ldr	r3, [r3, #0]
 8000324:	ea40 0201 	orr.w	r2, r0, r1
 8000328:	601a      	str	r2, [r3, #0]
	*registers[PID][1] = n_items; // number of items to transfer = 100
 800032a:	495d      	ldr	r1, [pc, #372]	; (80004a0 <DMA_setparams+0x204>)
 800032c:	68fa      	ldr	r2, [r7, #12]
 800032e:	4613      	mov	r3, r2
 8000330:	00db      	lsls	r3, r3, #3
 8000332:	1a9b      	subs	r3, r3, r2
 8000334:	009b      	lsls	r3, r3, #2
 8000336:	440b      	add	r3, r1
 8000338:	3304      	adds	r3, #4
 800033a:	681b      	ldr	r3, [r3, #0]
 800033c:	69ba      	ldr	r2, [r7, #24]
 800033e:	601a      	str	r2, [r3, #0]
	*registers[PID][0] |= 1<<9; //  Peripheral increment mode
 8000340:	4957      	ldr	r1, [pc, #348]	; (80004a0 <DMA_setparams+0x204>)
 8000342:	68fa      	ldr	r2, [r7, #12]
 8000344:	4613      	mov	r3, r2
 8000346:	00db      	lsls	r3, r3, #3
 8000348:	1a9b      	subs	r3, r3, r2
 800034a:	009b      	lsls	r3, r3, #2
 800034c:	440b      	add	r3, r1
 800034e:	681b      	ldr	r3, [r3, #0]
 8000350:	6819      	ldr	r1, [r3, #0]
 8000352:	4853      	ldr	r0, [pc, #332]	; (80004a0 <DMA_setparams+0x204>)
 8000354:	68fa      	ldr	r2, [r7, #12]
 8000356:	4613      	mov	r3, r2
 8000358:	00db      	lsls	r3, r3, #3
 800035a:	1a9b      	subs	r3, r3, r2
 800035c:	009b      	lsls	r3, r3, #2
 800035e:	4403      	add	r3, r0
 8000360:	681b      	ldr	r3, [r3, #0]
 8000362:	f441 7200 	orr.w	r2, r1, #512	; 0x200
 8000366:	601a      	str	r2, [r3, #0]
	*registers[PID][0] |= 1<<10; //  Memory increment mode
 8000368:	494d      	ldr	r1, [pc, #308]	; (80004a0 <DMA_setparams+0x204>)
 800036a:	68fa      	ldr	r2, [r7, #12]
 800036c:	4613      	mov	r3, r2
 800036e:	00db      	lsls	r3, r3, #3
 8000370:	1a9b      	subs	r3, r3, r2
 8000372:	009b      	lsls	r3, r3, #2
 8000374:	440b      	add	r3, r1
 8000376:	681b      	ldr	r3, [r3, #0]
 8000378:	6819      	ldr	r1, [r3, #0]
 800037a:	4849      	ldr	r0, [pc, #292]	; (80004a0 <DMA_setparams+0x204>)
 800037c:	68fa      	ldr	r2, [r7, #12]
 800037e:	4613      	mov	r3, r2
 8000380:	00db      	lsls	r3, r3, #3
 8000382:	1a9b      	subs	r3, r3, r2
 8000384:	009b      	lsls	r3, r3, #2
 8000386:	4403      	add	r3, r0
 8000388:	681b      	ldr	r3, [r3, #0]
 800038a:	f441 6280 	orr.w	r2, r1, #1024	; 0x400
 800038e:	601a      	str	r2, [r3, #0]
	*registers[PID][2] &= ~(fifo); // 1/4 FIFO
 8000390:	4943      	ldr	r1, [pc, #268]	; (80004a0 <DMA_setparams+0x204>)
 8000392:	68fa      	ldr	r2, [r7, #12]
 8000394:	4613      	mov	r3, r2
 8000396:	00db      	lsls	r3, r3, #3
 8000398:	1a9b      	subs	r3, r3, r2
 800039a:	009b      	lsls	r3, r3, #2
 800039c:	440b      	add	r3, r1
 800039e:	3308      	adds	r3, #8
 80003a0:	681b      	ldr	r3, [r3, #0]
 80003a2:	6818      	ldr	r0, [r3, #0]
 80003a4:	6abb      	ldr	r3, [r7, #40]	; 0x28
 80003a6:	43d9      	mvns	r1, r3
 80003a8:	4c3d      	ldr	r4, [pc, #244]	; (80004a0 <DMA_setparams+0x204>)
 80003aa:	68fa      	ldr	r2, [r7, #12]
 80003ac:	4613      	mov	r3, r2
 80003ae:	00db      	lsls	r3, r3, #3
 80003b0:	1a9b      	subs	r3, r3, r2
 80003b2:	009b      	lsls	r3, r3, #2
 80003b4:	4423      	add	r3, r4
 80003b6:	3308      	adds	r3, #8
 80003b8:	681b      	ldr	r3, [r3, #0]
 80003ba:	ea00 0201 	and.w	r2, r0, r1
 80003be:	601a      	str	r2, [r3, #0]
	*registers[PID][0] &= ~(0x03<<11);
 80003c0:	4937      	ldr	r1, [pc, #220]	; (80004a0 <DMA_setparams+0x204>)
 80003c2:	68fa      	ldr	r2, [r7, #12]
 80003c4:	4613      	mov	r3, r2
 80003c6:	00db      	lsls	r3, r3, #3
 80003c8:	1a9b      	subs	r3, r3, r2
 80003ca:	009b      	lsls	r3, r3, #2
 80003cc:	440b      	add	r3, r1
 80003ce:	681b      	ldr	r3, [r3, #0]
 80003d0:	6819      	ldr	r1, [r3, #0]
 80003d2:	4833      	ldr	r0, [pc, #204]	; (80004a0 <DMA_setparams+0x204>)
 80003d4:	68fa      	ldr	r2, [r7, #12]
 80003d6:	4613      	mov	r3, r2
 80003d8:	00db      	lsls	r3, r3, #3
 80003da:	1a9b      	subs	r3, r3, r2
 80003dc:	009b      	lsls	r3, r3, #2
 80003de:	4403      	add	r3, r0
 80003e0:	681b      	ldr	r3, [r3, #0]
 80003e2:	f421 52c0 	bic.w	r2, r1, #6144	; 0x1800
 80003e6:	601a      	str	r2, [r3, #0]
	*registers[PID][0] &= ~(0x03<<13);
 80003e8:	492d      	ldr	r1, [pc, #180]	; (80004a0 <DMA_setparams+0x204>)
 80003ea:	68fa      	ldr	r2, [r7, #12]
 80003ec:	4613      	mov	r3, r2
 80003ee:	00db      	lsls	r3, r3, #3
 80003f0:	1a9b      	subs	r3, r3, r2
 80003f2:	009b      	lsls	r3, r3, #2
 80003f4:	440b      	add	r3, r1
 80003f6:	681b      	ldr	r3, [r3, #0]
 80003f8:	6819      	ldr	r1, [r3, #0]
 80003fa:	4829      	ldr	r0, [pc, #164]	; (80004a0 <DMA_setparams+0x204>)
 80003fc:	68fa      	ldr	r2, [r7, #12]
 80003fe:	4613      	mov	r3, r2
 8000400:	00db      	lsls	r3, r3, #3
 8000402:	1a9b      	subs	r3, r3, r2
 8000404:	009b      	lsls	r3, r3, #2
 8000406:	4403      	add	r3, r0
 8000408:	681b      	ldr	r3, [r3, #0]
 800040a:	f421 42c0 	bic.w	r2, r1, #24576	; 0x6000
 800040e:	601a      	str	r2, [r3, #0]
	*registers[PID][0] |= item_size<<13; // MSIZE word size
 8000410:	4923      	ldr	r1, [pc, #140]	; (80004a0 <DMA_setparams+0x204>)
 8000412:	68fa      	ldr	r2, [r7, #12]
 8000414:	4613      	mov	r3, r2
 8000416:	00db      	lsls	r3, r3, #3
 8000418:	1a9b      	subs	r3, r3, r2
 800041a:	009b      	lsls	r3, r3, #2
 800041c:	440b      	add	r3, r1
 800041e:	681b      	ldr	r3, [r3, #0]
 8000420:	6818      	ldr	r0, [r3, #0]
 8000422:	69fb      	ldr	r3, [r7, #28]
 8000424:	0359      	lsls	r1, r3, #13
 8000426:	4c1e      	ldr	r4, [pc, #120]	; (80004a0 <DMA_setparams+0x204>)
 8000428:	68fa      	ldr	r2, [r7, #12]
 800042a:	4613      	mov	r3, r2
 800042c:	00db      	lsls	r3, r3, #3
 800042e:	1a9b      	subs	r3, r3, r2
 8000430:	009b      	lsls	r3, r3, #2
 8000432:	4423      	add	r3, r4
 8000434:	681b      	ldr	r3, [r3, #0]
 8000436:	ea40 0201 	orr.w	r2, r0, r1
 800043a:	601a      	str	r2, [r3, #0]
	*registers[PID][0] |= item_size<<11;// PSIZE word size
 800043c:	4918      	ldr	r1, [pc, #96]	; (80004a0 <DMA_setparams+0x204>)
 800043e:	68fa      	ldr	r2, [r7, #12]
 8000440:	4613      	mov	r3, r2
 8000442:	00db      	lsls	r3, r3, #3
 8000444:	1a9b      	subs	r3, r3, r2
 8000446:	009b      	lsls	r3, r3, #2
 8000448:	440b      	add	r3, r1
 800044a:	681b      	ldr	r3, [r3, #0]
 800044c:	6818      	ldr	r0, [r3, #0]
 800044e:	69fb      	ldr	r3, [r7, #28]
 8000450:	02d9      	lsls	r1, r3, #11
 8000452:	4c13      	ldr	r4, [pc, #76]	; (80004a0 <DMA_setparams+0x204>)
 8000454:	68fa      	ldr	r2, [r7, #12]
 8000456:	4613      	mov	r3, r2
 8000458:	00db      	lsls	r3, r3, #3
 800045a:	1a9b      	subs	r3, r3, r2
 800045c:	009b      	lsls	r3, r3, #2
 800045e:	4423      	add	r3, r4
 8000460:	681b      	ldr	r3, [r3, #0]
 8000462:	ea40 0201 	orr.w	r2, r0, r1
 8000466:	601a      	str	r2, [r3, #0]
	*registers[PID][3] = (unsigned int) src_arr; // set source address (head of the source array)
 8000468:	490d      	ldr	r1, [pc, #52]	; (80004a0 <DMA_setparams+0x204>)
 800046a:	68fa      	ldr	r2, [r7, #12]
 800046c:	4613      	mov	r3, r2
 800046e:	00db      	lsls	r3, r3, #3
 8000470:	1a9b      	subs	r3, r3, r2
 8000472:	009b      	lsls	r3, r3, #2
 8000474:	440b      	add	r3, r1
 8000476:	330c      	adds	r3, #12
 8000478:	681b      	ldr	r3, [r3, #0]
 800047a:	687a      	ldr	r2, [r7, #4]
 800047c:	601a      	str	r2, [r3, #0]
	*registers[PID][4] = (unsigned int) dst_arr; // set destination address (head of the destination array)
 800047e:	4908      	ldr	r1, [pc, #32]	; (80004a0 <DMA_setparams+0x204>)
 8000480:	68fa      	ldr	r2, [r7, #12]
 8000482:	4613      	mov	r3, r2
 8000484:	00db      	lsls	r3, r3, #3
 8000486:	1a9b      	subs	r3, r3, r2
 8000488:	009b      	lsls	r3, r3, #2
 800048a:	440b      	add	r3, r1
 800048c:	3310      	adds	r3, #16
 800048e:	681b      	ldr	r3, [r3, #0]
 8000490:	683a      	ldr	r2, [r7, #0]
 8000492:	601a      	str	r2, [r3, #0]



}
 8000494:	bf00      	nop
 8000496:	3710      	adds	r7, #16
 8000498:	46bd      	mov	sp, r7
 800049a:	bc90      	pop	{r4, r7}
 800049c:	4770      	bx	lr
 800049e:	bf00      	nop
 80004a0:	20000000 	.word	0x20000000

080004a4 <DMA_start_transfer>:

void DMA_start_transfer(unsigned int PID){
 80004a4:	b480      	push	{r7}
 80004a6:	b083      	sub	sp, #12
 80004a8:	af00      	add	r7, sp, #0
 80004aa:	6078      	str	r0, [r7, #4]
	//clear interrupts
//	*registers[PID][5] |= (1<<0);
//	*registers[PID][5] |= (0x0F<<2);
	*registers[PID][0] |= (1<<0); //enable stream 0
 80004ac:	490c      	ldr	r1, [pc, #48]	; (80004e0 <DMA_start_transfer+0x3c>)
 80004ae:	687a      	ldr	r2, [r7, #4]
 80004b0:	4613      	mov	r3, r2
 80004b2:	00db      	lsls	r3, r3, #3
 80004b4:	1a9b      	subs	r3, r3, r2
 80004b6:	009b      	lsls	r3, r3, #2
 80004b8:	440b      	add	r3, r1
 80004ba:	681b      	ldr	r3, [r3, #0]
 80004bc:	6819      	ldr	r1, [r3, #0]
 80004be:	4808      	ldr	r0, [pc, #32]	; (80004e0 <DMA_start_transfer+0x3c>)
 80004c0:	687a      	ldr	r2, [r7, #4]
 80004c2:	4613      	mov	r3, r2
 80004c4:	00db      	lsls	r3, r3, #3
 80004c6:	1a9b      	subs	r3, r3, r2
 80004c8:	009b      	lsls	r3, r3, #2
 80004ca:	4403      	add	r3, r0
 80004cc:	681b      	ldr	r3, [r3, #0]
 80004ce:	f041 0201 	orr.w	r2, r1, #1
 80004d2:	601a      	str	r2, [r3, #0]
}
 80004d4:	bf00      	nop
 80004d6:	370c      	adds	r7, #12
 80004d8:	46bd      	mov	sp, r7
 80004da:	f85d 7b04 	ldr.w	r7, [sp], #4
 80004de:	4770      	bx	lr
 80004e0:	20000000 	.word	0x20000000

080004e4 <DMA_transfer_complete>:

int DMA_transfer_complete(unsigned int PID){// read and return the transfer complete flag for stream 0;
 80004e4:	b480      	push	{r7}
 80004e6:	b085      	sub	sp, #20
 80004e8:	af00      	add	r7, sp, #0
 80004ea:	6078      	str	r0, [r7, #4]
	int flag_val =  (*registers[PID][6] & (1 << 5)) >> 5;
 80004ec:	490a      	ldr	r1, [pc, #40]	; (8000518 <DMA_transfer_complete+0x34>)
 80004ee:	687a      	ldr	r2, [r7, #4]
 80004f0:	4613      	mov	r3, r2
 80004f2:	00db      	lsls	r3, r3, #3
 80004f4:	1a9b      	subs	r3, r3, r2
 80004f6:	009b      	lsls	r3, r3, #2
 80004f8:	440b      	add	r3, r1
 80004fa:	3318      	adds	r3, #24
 80004fc:	681b      	ldr	r3, [r3, #0]
 80004fe:	681b      	ldr	r3, [r3, #0]
 8000500:	095b      	lsrs	r3, r3, #5
 8000502:	f003 0301 	and.w	r3, r3, #1
 8000506:	60fb      	str	r3, [r7, #12]
	return flag_val;
 8000508:	68fb      	ldr	r3, [r7, #12]

}
 800050a:	4618      	mov	r0, r3
 800050c:	3714      	adds	r7, #20
 800050e:	46bd      	mov	sp, r7
 8000510:	f85d 7b04 	ldr.w	r7, [sp], #4
 8000514:	4770      	bx	lr
 8000516:	bf00      	nop
 8000518:	20000000 	.word	0x20000000

0800051c <DMA2_Stream0_IRQHandler>:


void DMA2_Stream0_IRQHandler(){
 800051c:	b580      	push	{r7, lr}
 800051e:	af00      	add	r7, sp, #0
	user_Deffunc();
 8000520:	f000 f966 	bl	80007f0 <user_Deffunc>
	*registers[0][5] |= 1<<5;
 8000524:	4b04      	ldr	r3, [pc, #16]	; (8000538 <DMA2_Stream0_IRQHandler+0x1c>)
 8000526:	695b      	ldr	r3, [r3, #20]
 8000528:	681a      	ldr	r2, [r3, #0]
 800052a:	4b03      	ldr	r3, [pc, #12]	; (8000538 <DMA2_Stream0_IRQHandler+0x1c>)
 800052c:	695b      	ldr	r3, [r3, #20]
 800052e:	f042 0220 	orr.w	r2, r2, #32
 8000532:	601a      	str	r2, [r3, #0]
}
 8000534:	bf00      	nop
 8000536:	bd80      	pop	{r7, pc}
 8000538:	20000000 	.word	0x20000000

0800053c <DMA1_Stream0_IRQHandler>:
void DMA1_Stream0_IRQHandler(){
 800053c:	b580      	push	{r7, lr}
 800053e:	af00      	add	r7, sp, #0
	user_Deffunc();
 8000540:	f000 f956 	bl	80007f0 <user_Deffunc>
	*registers[1][5] |= 1<<5;
 8000544:	4b04      	ldr	r3, [pc, #16]	; (8000558 <DMA1_Stream0_IRQHandler+0x1c>)
 8000546:	6b1b      	ldr	r3, [r3, #48]	; 0x30
 8000548:	681a      	ldr	r2, [r3, #0]
 800054a:	4b03      	ldr	r3, [pc, #12]	; (8000558 <DMA1_Stream0_IRQHandler+0x1c>)
 800054c:	6b1b      	ldr	r3, [r3, #48]	; 0x30
 800054e:	f042 0220 	orr.w	r2, r2, #32
 8000552:	601a      	str	r2, [r3, #0]
}
 8000554:	bf00      	nop
 8000556:	bd80      	pop	{r7, pc}
 8000558:	20000000 	.word	0x20000000

0800055c <GPIO_EnableClock>:
#define _OUTTYPE_SHIFT 0

#define _PUPD_MASK ((unsigned char)0x06)
#define _PUPD_SHIFT 1

void GPIO_EnableClock(char PortName) {
 800055c:	b480      	push	{r7}
 800055e:	b083      	sub	sp, #12
 8000560:	af00      	add	r7, sp, #0
 8000562:	4603      	mov	r3, r0
 8000564:	71fb      	strb	r3, [r7, #7]
  switch (PortName) {
 8000566:	79fb      	ldrb	r3, [r7, #7]
 8000568:	2b41      	cmp	r3, #65	; 0x41
 800056a:	d002      	beq.n	8000572 <GPIO_EnableClock+0x16>
 800056c:	2b42      	cmp	r3, #66	; 0x42
 800056e:	d007      	beq.n	8000580 <GPIO_EnableClock+0x24>
      break;
    case 'B':
      RCC_AHB1ENR |= (0x01 << 1);
      break;
    default:
      break;
 8000570:	e00d      	b.n	800058e <GPIO_EnableClock+0x32>
      RCC_AHB1ENR |= (0x01 << 0);
 8000572:	4b0a      	ldr	r3, [pc, #40]	; (800059c <GPIO_EnableClock+0x40>)
 8000574:	6b1b      	ldr	r3, [r3, #48]	; 0x30
 8000576:	4a09      	ldr	r2, [pc, #36]	; (800059c <GPIO_EnableClock+0x40>)
 8000578:	f043 0301 	orr.w	r3, r3, #1
 800057c:	6313      	str	r3, [r2, #48]	; 0x30
      break;
 800057e:	e006      	b.n	800058e <GPIO_EnableClock+0x32>
      RCC_AHB1ENR |= (0x01 << 1);
 8000580:	4b06      	ldr	r3, [pc, #24]	; (800059c <GPIO_EnableClock+0x40>)
 8000582:	6b1b      	ldr	r3, [r3, #48]	; 0x30
 8000584:	4a05      	ldr	r2, [pc, #20]	; (800059c <GPIO_EnableClock+0x40>)
 8000586:	f043 0302 	orr.w	r3, r3, #2
 800058a:	6313      	str	r3, [r2, #48]	; 0x30
      break;
 800058c:	bf00      	nop
  }
}
 800058e:	bf00      	nop
 8000590:	370c      	adds	r7, #12
 8000592:	46bd      	mov	sp, r7
 8000594:	f85d 7b04 	ldr.w	r7, [sp], #4
 8000598:	4770      	bx	lr
 800059a:	bf00      	nop
 800059c:	40023800 	.word	0x40023800

080005a0 <GPIO_Init>:

void GPIO_Init(char PortName, unsigned char PinNum, unsigned char PinMode,
               unsigned char DefaultState) {
 80005a0:	b490      	push	{r4, r7}
 80005a2:	b082      	sub	sp, #8
 80005a4:	af00      	add	r7, sp, #0
 80005a6:	4604      	mov	r4, r0
 80005a8:	4608      	mov	r0, r1
 80005aa:	4611      	mov	r1, r2
 80005ac:	461a      	mov	r2, r3
 80005ae:	4623      	mov	r3, r4
 80005b0:	71fb      	strb	r3, [r7, #7]
 80005b2:	4603      	mov	r3, r0
 80005b4:	71bb      	strb	r3, [r7, #6]
 80005b6:	460b      	mov	r3, r1
 80005b8:	717b      	strb	r3, [r7, #5]
 80005ba:	4613      	mov	r3, r2
 80005bc:	713b      	strb	r3, [r7, #4]
  switch (PortName) {
 80005be:	79fb      	ldrb	r3, [r7, #7]
 80005c0:	2b41      	cmp	r3, #65	; 0x41
 80005c2:	d002      	beq.n	80005ca <GPIO_Init+0x2a>
 80005c4:	2b42      	cmp	r3, #66	; 0x42
 80005c6:	d049      	beq.n	800065c <GPIO_Init+0xbc>

      GPIOB_PUPDR &= ~(0x03 << 2 * PinNum);
      GPIOB_PUPDR |= ((DefaultState & _PUPD_MASK) >> _PUPD_SHIFT) << (2 * PinNum);
      break;
  }
}
 80005c8:	e091      	b.n	80006ee <GPIO_Init+0x14e>
      GPIOA_MODER &= ~(0x03 << 2 * PinNum);
 80005ca:	4b4b      	ldr	r3, [pc, #300]	; (80006f8 <GPIO_Init+0x158>)
 80005cc:	681b      	ldr	r3, [r3, #0]
 80005ce:	79ba      	ldrb	r2, [r7, #6]
 80005d0:	0052      	lsls	r2, r2, #1
 80005d2:	2103      	movs	r1, #3
 80005d4:	fa01 f202 	lsl.w	r2, r1, r2
 80005d8:	43d2      	mvns	r2, r2
 80005da:	4611      	mov	r1, r2
 80005dc:	4a46      	ldr	r2, [pc, #280]	; (80006f8 <GPIO_Init+0x158>)
 80005de:	400b      	ands	r3, r1
 80005e0:	6013      	str	r3, [r2, #0]
      GPIOA_MODER |= PinMode << 2 * PinNum;
 80005e2:	4b45      	ldr	r3, [pc, #276]	; (80006f8 <GPIO_Init+0x158>)
 80005e4:	681b      	ldr	r3, [r3, #0]
 80005e6:	7979      	ldrb	r1, [r7, #5]
 80005e8:	79ba      	ldrb	r2, [r7, #6]
 80005ea:	0052      	lsls	r2, r2, #1
 80005ec:	fa01 f202 	lsl.w	r2, r1, r2
 80005f0:	4611      	mov	r1, r2
 80005f2:	4a41      	ldr	r2, [pc, #260]	; (80006f8 <GPIO_Init+0x158>)
 80005f4:	430b      	orrs	r3, r1
 80005f6:	6013      	str	r3, [r2, #0]
      GPIOA_OTYPER &= ~(1 << PinNum);
 80005f8:	4b3f      	ldr	r3, [pc, #252]	; (80006f8 <GPIO_Init+0x158>)
 80005fa:	685b      	ldr	r3, [r3, #4]
 80005fc:	79ba      	ldrb	r2, [r7, #6]
 80005fe:	2101      	movs	r1, #1
 8000600:	fa01 f202 	lsl.w	r2, r1, r2
 8000604:	43d2      	mvns	r2, r2
 8000606:	4611      	mov	r1, r2
 8000608:	4a3b      	ldr	r2, [pc, #236]	; (80006f8 <GPIO_Init+0x158>)
 800060a:	400b      	ands	r3, r1
 800060c:	6053      	str	r3, [r2, #4]
      GPIOA_OTYPER |= ((DefaultState & _OUTTYPE_MASK) >> _OUTTYPE_SHIFT) << PinNum;
 800060e:	4b3a      	ldr	r3, [pc, #232]	; (80006f8 <GPIO_Init+0x158>)
 8000610:	685b      	ldr	r3, [r3, #4]
 8000612:	793a      	ldrb	r2, [r7, #4]
 8000614:	f002 0101 	and.w	r1, r2, #1
 8000618:	79ba      	ldrb	r2, [r7, #6]
 800061a:	fa01 f202 	lsl.w	r2, r1, r2
 800061e:	4611      	mov	r1, r2
 8000620:	4a35      	ldr	r2, [pc, #212]	; (80006f8 <GPIO_Init+0x158>)
 8000622:	430b      	orrs	r3, r1
 8000624:	6053      	str	r3, [r2, #4]
      GPIOA_PUPDR &= ~(0x03 << 2 * PinNum);
 8000626:	4b34      	ldr	r3, [pc, #208]	; (80006f8 <GPIO_Init+0x158>)
 8000628:	68db      	ldr	r3, [r3, #12]
 800062a:	79ba      	ldrb	r2, [r7, #6]
 800062c:	0052      	lsls	r2, r2, #1
 800062e:	2103      	movs	r1, #3
 8000630:	fa01 f202 	lsl.w	r2, r1, r2
 8000634:	43d2      	mvns	r2, r2
 8000636:	4611      	mov	r1, r2
 8000638:	4a2f      	ldr	r2, [pc, #188]	; (80006f8 <GPIO_Init+0x158>)
 800063a:	400b      	ands	r3, r1
 800063c:	60d3      	str	r3, [r2, #12]
      GPIOA_PUPDR |= ((DefaultState & _PUPD_MASK) >> _PUPD_SHIFT) << (2 * PinNum);
 800063e:	4b2e      	ldr	r3, [pc, #184]	; (80006f8 <GPIO_Init+0x158>)
 8000640:	68db      	ldr	r3, [r3, #12]
 8000642:	793a      	ldrb	r2, [r7, #4]
 8000644:	1052      	asrs	r2, r2, #1
 8000646:	f002 0103 	and.w	r1, r2, #3
 800064a:	79ba      	ldrb	r2, [r7, #6]
 800064c:	0052      	lsls	r2, r2, #1
 800064e:	fa01 f202 	lsl.w	r2, r1, r2
 8000652:	4611      	mov	r1, r2
 8000654:	4a28      	ldr	r2, [pc, #160]	; (80006f8 <GPIO_Init+0x158>)
 8000656:	430b      	orrs	r3, r1
 8000658:	60d3      	str	r3, [r2, #12]
      break;
 800065a:	e048      	b.n	80006ee <GPIO_Init+0x14e>
      GPIOB_MODER &= ~(0x03 << 2 * PinNum);
 800065c:	4b27      	ldr	r3, [pc, #156]	; (80006fc <GPIO_Init+0x15c>)
 800065e:	681b      	ldr	r3, [r3, #0]
 8000660:	79ba      	ldrb	r2, [r7, #6]
 8000662:	0052      	lsls	r2, r2, #1
 8000664:	2103      	movs	r1, #3
 8000666:	fa01 f202 	lsl.w	r2, r1, r2
 800066a:	43d2      	mvns	r2, r2
 800066c:	4611      	mov	r1, r2
 800066e:	4a23      	ldr	r2, [pc, #140]	; (80006fc <GPIO_Init+0x15c>)
 8000670:	400b      	ands	r3, r1
 8000672:	6013      	str	r3, [r2, #0]
      GPIOB_MODER |= PinMode << 2 * PinNum;
 8000674:	4b21      	ldr	r3, [pc, #132]	; (80006fc <GPIO_Init+0x15c>)
 8000676:	681b      	ldr	r3, [r3, #0]
 8000678:	7979      	ldrb	r1, [r7, #5]
 800067a:	79ba      	ldrb	r2, [r7, #6]
 800067c:	0052      	lsls	r2, r2, #1
 800067e:	fa01 f202 	lsl.w	r2, r1, r2
 8000682:	4611      	mov	r1, r2
 8000684:	4a1d      	ldr	r2, [pc, #116]	; (80006fc <GPIO_Init+0x15c>)
 8000686:	430b      	orrs	r3, r1
 8000688:	6013      	str	r3, [r2, #0]
      GPIOB_OTYPER &= ~(1 << PinNum);
 800068a:	4b1c      	ldr	r3, [pc, #112]	; (80006fc <GPIO_Init+0x15c>)
 800068c:	685b      	ldr	r3, [r3, #4]
 800068e:	79ba      	ldrb	r2, [r7, #6]
 8000690:	2101      	movs	r1, #1
 8000692:	fa01 f202 	lsl.w	r2, r1, r2
 8000696:	43d2      	mvns	r2, r2
 8000698:	4611      	mov	r1, r2
 800069a:	4a18      	ldr	r2, [pc, #96]	; (80006fc <GPIO_Init+0x15c>)
 800069c:	400b      	ands	r3, r1
 800069e:	6053      	str	r3, [r2, #4]
      GPIOB_OTYPER |= ((DefaultState & _OUTTYPE_MASK) >> _OUTTYPE_SHIFT) << PinNum;
 80006a0:	4b16      	ldr	r3, [pc, #88]	; (80006fc <GPIO_Init+0x15c>)
 80006a2:	685b      	ldr	r3, [r3, #4]
 80006a4:	793a      	ldrb	r2, [r7, #4]
 80006a6:	f002 0101 	and.w	r1, r2, #1
 80006aa:	79ba      	ldrb	r2, [r7, #6]
 80006ac:	fa01 f202 	lsl.w	r2, r1, r2
 80006b0:	4611      	mov	r1, r2
 80006b2:	4a12      	ldr	r2, [pc, #72]	; (80006fc <GPIO_Init+0x15c>)
 80006b4:	430b      	orrs	r3, r1
 80006b6:	6053      	str	r3, [r2, #4]
      GPIOB_PUPDR &= ~(0x03 << 2 * PinNum);
 80006b8:	4b10      	ldr	r3, [pc, #64]	; (80006fc <GPIO_Init+0x15c>)
 80006ba:	68db      	ldr	r3, [r3, #12]
 80006bc:	79ba      	ldrb	r2, [r7, #6]
 80006be:	0052      	lsls	r2, r2, #1
 80006c0:	2103      	movs	r1, #3
 80006c2:	fa01 f202 	lsl.w	r2, r1, r2
 80006c6:	43d2      	mvns	r2, r2
 80006c8:	4611      	mov	r1, r2
 80006ca:	4a0c      	ldr	r2, [pc, #48]	; (80006fc <GPIO_Init+0x15c>)
 80006cc:	400b      	ands	r3, r1
 80006ce:	60d3      	str	r3, [r2, #12]
      GPIOB_PUPDR |= ((DefaultState & _PUPD_MASK) >> _PUPD_SHIFT) << (2 * PinNum);
 80006d0:	4b0a      	ldr	r3, [pc, #40]	; (80006fc <GPIO_Init+0x15c>)
 80006d2:	68db      	ldr	r3, [r3, #12]
 80006d4:	793a      	ldrb	r2, [r7, #4]
 80006d6:	1052      	asrs	r2, r2, #1
 80006d8:	f002 0103 	and.w	r1, r2, #3
 80006dc:	79ba      	ldrb	r2, [r7, #6]
 80006de:	0052      	lsls	r2, r2, #1
 80006e0:	fa01 f202 	lsl.w	r2, r1, r2
 80006e4:	4611      	mov	r1, r2
 80006e6:	4a05      	ldr	r2, [pc, #20]	; (80006fc <GPIO_Init+0x15c>)
 80006e8:	430b      	orrs	r3, r1
 80006ea:	60d3      	str	r3, [r2, #12]
      break;
 80006ec:	bf00      	nop
}
 80006ee:	bf00      	nop
 80006f0:	3708      	adds	r7, #8
 80006f2:	46bd      	mov	sp, r7
 80006f4:	bc90      	pop	{r4, r7}
 80006f6:	4770      	bx	lr
 80006f8:	40020000 	.word	0x40020000
 80006fc:	40020400 	.word	0x40020400

08000700 <GPIO_WritePin>:

unsigned char GPIO_WritePin(char PortName, unsigned char PinNum,
                            unsigned char Data) {
 8000700:	b480      	push	{r7}
 8000702:	b085      	sub	sp, #20
 8000704:	af00      	add	r7, sp, #0
 8000706:	4603      	mov	r3, r0
 8000708:	71fb      	strb	r3, [r7, #7]
 800070a:	460b      	mov	r3, r1
 800070c:	71bb      	strb	r3, [r7, #6]
 800070e:	4613      	mov	r3, r2
 8000710:	717b      	strb	r3, [r7, #5]
  unsigned char result;
  switch (PortName) {
 8000712:	79fb      	ldrb	r3, [r7, #7]
 8000714:	2b41      	cmp	r3, #65	; 0x41
 8000716:	d002      	beq.n	800071e <GPIO_WritePin+0x1e>
 8000718:	2b42      	cmp	r3, #66	; 0x42
 800071a:	d02d      	beq.n	8000778 <GPIO_WritePin+0x78>
 800071c:	e059      	b.n	80007d2 <GPIO_WritePin+0xd2>
    case ('A'):
      if (((GPIOA_MODER & (0x03 << 2 * PinNum)) >> (2 * PinNum)) == 1) {
 800071e:	4b32      	ldr	r3, [pc, #200]	; (80007e8 <GPIO_WritePin+0xe8>)
 8000720:	681b      	ldr	r3, [r3, #0]
 8000722:	79ba      	ldrb	r2, [r7, #6]
 8000724:	0052      	lsls	r2, r2, #1
 8000726:	2103      	movs	r1, #3
 8000728:	fa01 f202 	lsl.w	r2, r1, r2
 800072c:	401a      	ands	r2, r3
 800072e:	79bb      	ldrb	r3, [r7, #6]
 8000730:	005b      	lsls	r3, r3, #1
 8000732:	fa22 f303 	lsr.w	r3, r2, r3
 8000736:	2b01      	cmp	r3, #1
 8000738:	d11b      	bne.n	8000772 <GPIO_WritePin+0x72>
        if (Data) {
 800073a:	797b      	ldrb	r3, [r7, #5]
 800073c:	2b00      	cmp	r3, #0
 800073e:	d00a      	beq.n	8000756 <GPIO_WritePin+0x56>
          GPIOA_ODR |= (1 << PinNum);
 8000740:	4b29      	ldr	r3, [pc, #164]	; (80007e8 <GPIO_WritePin+0xe8>)
 8000742:	695b      	ldr	r3, [r3, #20]
 8000744:	79ba      	ldrb	r2, [r7, #6]
 8000746:	2101      	movs	r1, #1
 8000748:	fa01 f202 	lsl.w	r2, r1, r2
 800074c:	4611      	mov	r1, r2
 800074e:	4a26      	ldr	r2, [pc, #152]	; (80007e8 <GPIO_WritePin+0xe8>)
 8000750:	430b      	orrs	r3, r1
 8000752:	6153      	str	r3, [r2, #20]
 8000754:	e00a      	b.n	800076c <GPIO_WritePin+0x6c>
        } else {
          GPIOA_ODR &= ~(1 << PinNum);
 8000756:	4b24      	ldr	r3, [pc, #144]	; (80007e8 <GPIO_WritePin+0xe8>)
 8000758:	695b      	ldr	r3, [r3, #20]
 800075a:	79ba      	ldrb	r2, [r7, #6]
 800075c:	2101      	movs	r1, #1
 800075e:	fa01 f202 	lsl.w	r2, r1, r2
 8000762:	43d2      	mvns	r2, r2
 8000764:	4611      	mov	r1, r2
 8000766:	4a20      	ldr	r2, [pc, #128]	; (80007e8 <GPIO_WritePin+0xe8>)
 8000768:	400b      	ands	r3, r1
 800076a:	6153      	str	r3, [r2, #20]
        }
        result = OK;
 800076c:	2300      	movs	r3, #0
 800076e:	73fb      	strb	r3, [r7, #15]
      } else {
        result = NOK;
      }
      break;
 8000770:	e032      	b.n	80007d8 <GPIO_WritePin+0xd8>
        result = NOK;
 8000772:	2301      	movs	r3, #1
 8000774:	73fb      	strb	r3, [r7, #15]
      break;
 8000776:	e02f      	b.n	80007d8 <GPIO_WritePin+0xd8>
    case ('B'):
      if (((GPIOB_MODER & (0x03 << 2 * PinNum)) >> (2 * PinNum)) == 1) {
 8000778:	4b1c      	ldr	r3, [pc, #112]	; (80007ec <GPIO_WritePin+0xec>)
 800077a:	681b      	ldr	r3, [r3, #0]
 800077c:	79ba      	ldrb	r2, [r7, #6]
 800077e:	0052      	lsls	r2, r2, #1
 8000780:	2103      	movs	r1, #3
 8000782:	fa01 f202 	lsl.w	r2, r1, r2
 8000786:	401a      	ands	r2, r3
 8000788:	79bb      	ldrb	r3, [r7, #6]
 800078a:	005b      	lsls	r3, r3, #1
 800078c:	fa22 f303 	lsr.w	r3, r2, r3
 8000790:	2b01      	cmp	r3, #1
 8000792:	d11b      	bne.n	80007cc <GPIO_WritePin+0xcc>
        if (Data) {
 8000794:	797b      	ldrb	r3, [r7, #5]
 8000796:	2b00      	cmp	r3, #0
 8000798:	d00a      	beq.n	80007b0 <GPIO_WritePin+0xb0>
          GPIOB_ODR |= (1 << PinNum);
 800079a:	4b14      	ldr	r3, [pc, #80]	; (80007ec <GPIO_WritePin+0xec>)
 800079c:	695b      	ldr	r3, [r3, #20]
 800079e:	79ba      	ldrb	r2, [r7, #6]
 80007a0:	2101      	movs	r1, #1
 80007a2:	fa01 f202 	lsl.w	r2, r1, r2
 80007a6:	4611      	mov	r1, r2
 80007a8:	4a10      	ldr	r2, [pc, #64]	; (80007ec <GPIO_WritePin+0xec>)
 80007aa:	430b      	orrs	r3, r1
 80007ac:	6153      	str	r3, [r2, #20]
 80007ae:	e00a      	b.n	80007c6 <GPIO_WritePin+0xc6>
        } else {
          GPIOB_ODR &= ~(1 << PinNum);
 80007b0:	4b0e      	ldr	r3, [pc, #56]	; (80007ec <GPIO_WritePin+0xec>)
 80007b2:	695b      	ldr	r3, [r3, #20]
 80007b4:	79ba      	ldrb	r2, [r7, #6]
 80007b6:	2101      	movs	r1, #1
 80007b8:	fa01 f202 	lsl.w	r2, r1, r2
 80007bc:	43d2      	mvns	r2, r2
 80007be:	4611      	mov	r1, r2
 80007c0:	4a0a      	ldr	r2, [pc, #40]	; (80007ec <GPIO_WritePin+0xec>)
 80007c2:	400b      	ands	r3, r1
 80007c4:	6153      	str	r3, [r2, #20]
        }
        result = OK;
 80007c6:	2300      	movs	r3, #0
 80007c8:	73fb      	strb	r3, [r7, #15]
      } else {
        result = NOK;
      }
      break;
 80007ca:	e005      	b.n	80007d8 <GPIO_WritePin+0xd8>
        result = NOK;
 80007cc:	2301      	movs	r3, #1
 80007ce:	73fb      	strb	r3, [r7, #15]
      break;
 80007d0:	e002      	b.n	80007d8 <GPIO_WritePin+0xd8>
    default:
      result = NOK;
 80007d2:	2301      	movs	r3, #1
 80007d4:	73fb      	strb	r3, [r7, #15]
      break;
 80007d6:	bf00      	nop
  }  // end switch

  return result;
 80007d8:	7bfb      	ldrb	r3, [r7, #15]
}
 80007da:	4618      	mov	r0, r3
 80007dc:	3714      	adds	r7, #20
 80007de:	46bd      	mov	sp, r7
 80007e0:	f85d 7b04 	ldr.w	r7, [sp], #4
 80007e4:	4770      	bx	lr
 80007e6:	bf00      	nop
 80007e8:	40020000 	.word	0x40020000
 80007ec:	40020400 	.word	0x40020400

080007f0 <user_Deffunc>:
#include "GPIO.h"
#include "DMA.h"
#include "stm32f401cc_interface.h"
unsigned int src_arr[100];
unsigned int dst_arr[100];
void user_Deffunc(){
 80007f0:	b580      	push	{r7, lr}
 80007f2:	af00      	add	r7, sp, #0

		GPIO_WritePin('A',0,1);
 80007f4:	2201      	movs	r2, #1
 80007f6:	2100      	movs	r1, #0
 80007f8:	2041      	movs	r0, #65	; 0x41
 80007fa:	f7ff ff81 	bl	8000700 <GPIO_WritePin>

}
 80007fe:	bf00      	nop
 8000800:	bd80      	pop	{r7, pc}
	...

08000804 <main>:

int main(){
 8000804:	b580      	push	{r7, lr}
 8000806:	b088      	sub	sp, #32
 8000808:	af06      	add	r7, sp, #24

	src_arr[0] =100;
 800080a:	4b21      	ldr	r3, [pc, #132]	; (8000890 <main+0x8c>)
 800080c:	2264      	movs	r2, #100	; 0x64
 800080e:	601a      	str	r2, [r3, #0]
	dst_arr[0]=0;
 8000810:	4b20      	ldr	r3, [pc, #128]	; (8000894 <main+0x90>)
 8000812:	2200      	movs	r2, #0
 8000814:	601a      	str	r2, [r3, #0]
	for (int i =1;i<=100;i++) {
 8000816:	2301      	movs	r3, #1
 8000818:	607b      	str	r3, [r7, #4]
 800081a:	e012      	b.n	8000842 <main+0x3e>
		src_arr[i] =100+src_arr[i-1];
 800081c:	687b      	ldr	r3, [r7, #4]
 800081e:	3b01      	subs	r3, #1
 8000820:	4a1b      	ldr	r2, [pc, #108]	; (8000890 <main+0x8c>)
 8000822:	f852 3023 	ldr.w	r3, [r2, r3, lsl #2]
 8000826:	f103 0264 	add.w	r2, r3, #100	; 0x64
 800082a:	4919      	ldr	r1, [pc, #100]	; (8000890 <main+0x8c>)
 800082c:	687b      	ldr	r3, [r7, #4]
 800082e:	f841 2023 	str.w	r2, [r1, r3, lsl #2]
		dst_arr[i] =0;
 8000832:	4a18      	ldr	r2, [pc, #96]	; (8000894 <main+0x90>)
 8000834:	687b      	ldr	r3, [r7, #4]
 8000836:	2100      	movs	r1, #0
 8000838:	f842 1023 	str.w	r1, [r2, r3, lsl #2]
	for (int i =1;i<=100;i++) {
 800083c:	687b      	ldr	r3, [r7, #4]
 800083e:	3301      	adds	r3, #1
 8000840:	607b      	str	r3, [r7, #4]
 8000842:	687b      	ldr	r3, [r7, #4]
 8000844:	2b64      	cmp	r3, #100	; 0x64
 8000846:	dde9      	ble.n	800081c <main+0x18>
	}

	GPIO_EnableClock('A');
 8000848:	2041      	movs	r0, #65	; 0x41
 800084a:	f7ff fe87 	bl	800055c <GPIO_EnableClock>
	GPIO_Init('A',0,OUTPUT,PUSH_PULL);
 800084e:	2300      	movs	r3, #0
 8000850:	2201      	movs	r2, #1
 8000852:	2100      	movs	r1, #0
 8000854:	2041      	movs	r0, #65	; 0x41
 8000856:	f7ff fea3 	bl	80005a0 <GPIO_Init>

	DMA_init(0);
 800085a:	2000      	movs	r0, #0
 800085c:	f7ff fcba 	bl	80001d4 <DMA_init>
	DMA_setparams(0,0,src_arr,dst_arr,0x64,0x02,0x02,0x00,0x03);
 8000860:	2303      	movs	r3, #3
 8000862:	9304      	str	r3, [sp, #16]
 8000864:	2300      	movs	r3, #0
 8000866:	9303      	str	r3, [sp, #12]
 8000868:	2302      	movs	r3, #2
 800086a:	9302      	str	r3, [sp, #8]
 800086c:	2302      	movs	r3, #2
 800086e:	9301      	str	r3, [sp, #4]
 8000870:	2364      	movs	r3, #100	; 0x64
 8000872:	9300      	str	r3, [sp, #0]
 8000874:	4b07      	ldr	r3, [pc, #28]	; (8000894 <main+0x90>)
 8000876:	4a06      	ldr	r2, [pc, #24]	; (8000890 <main+0x8c>)
 8000878:	2100      	movs	r1, #0
 800087a:	2000      	movs	r0, #0
 800087c:	f7ff fd0e 	bl	800029c <DMA_setparams>
	DMA_start_transfer(0);
 8000880:	2000      	movs	r0, #0
 8000882:	f7ff fe0f 	bl	80004a4 <DMA_start_transfer>
	int flag = DMA_transfer_complete(0);
 8000886:	2000      	movs	r0, #0
 8000888:	f7ff fe2c 	bl	80004e4 <DMA_transfer_complete>
 800088c:	6038      	str	r0, [r7, #0]
	while (1){
 800088e:	e7fe      	b.n	800088e <main+0x8a>
 8000890:	200001e8 	.word	0x200001e8
 8000894:	20000058 	.word	0x20000058

08000898 <NMI_Handler>:
/******************************************************************************/
/**
  * @brief This function handles Non maskable interrupt.
  */
void NMI_Handler(void)
{
 8000898:	b480      	push	{r7}
 800089a:	af00      	add	r7, sp, #0
  /* USER CODE BEGIN NonMaskableInt_IRQn 0 */

  /* USER CODE END NonMaskableInt_IRQn 0 */
  /* USER CODE BEGIN NonMaskableInt_IRQn 1 */
  while (1)
 800089c:	e7fe      	b.n	800089c <NMI_Handler+0x4>

0800089e <HardFault_Handler>:

/**
  * @brief This function handles Hard fault interrupt.
  */
void HardFault_Handler(void)
{
 800089e:	b480      	push	{r7}
 80008a0:	af00      	add	r7, sp, #0
  /* USER CODE BEGIN HardFault_IRQn 0 */

  /* USER CODE END HardFault_IRQn 0 */
  while (1)
 80008a2:	e7fe      	b.n	80008a2 <HardFault_Handler+0x4>

080008a4 <MemManage_Handler>:

/**
  * @brief This function handles Memory management fault.
  */
void MemManage_Handler(void)
{
 80008a4:	b480      	push	{r7}
 80008a6:	af00      	add	r7, sp, #0
  /* USER CODE BEGIN MemoryManagement_IRQn 0 */

  /* USER CODE END MemoryManagement_IRQn 0 */
  while (1)
 80008a8:	e7fe      	b.n	80008a8 <MemManage_Handler+0x4>

080008aa <BusFault_Handler>:

/**
  * @brief This function handles Pre-fetch fault, memory access fault.
  */
void BusFault_Handler(void)
{
 80008aa:	b480      	push	{r7}
 80008ac:	af00      	add	r7, sp, #0
  /* USER CODE BEGIN BusFault_IRQn 0 */

  /* USER CODE END BusFault_IRQn 0 */
  while (1)
 80008ae:	e7fe      	b.n	80008ae <BusFault_Handler+0x4>

080008b0 <UsageFault_Handler>:

/**
  * @brief This function handles Undefined instruction or illegal state.
  */
void UsageFault_Handler(void)
{
 80008b0:	b480      	push	{r7}
 80008b2:	af00      	add	r7, sp, #0
  /* USER CODE BEGIN UsageFault_IRQn 0 */

  /* USER CODE END UsageFault_IRQn 0 */
  while (1)
 80008b4:	e7fe      	b.n	80008b4 <UsageFault_Handler+0x4>

080008b6 <SVC_Handler>:

/**
  * @brief This function handles System service call via SWI instruction.
  */
void SVC_Handler(void)
{
 80008b6:	b480      	push	{r7}
 80008b8:	af00      	add	r7, sp, #0

  /* USER CODE END SVCall_IRQn 0 */
  /* USER CODE BEGIN SVCall_IRQn 1 */

  /* USER CODE END SVCall_IRQn 1 */
}
 80008ba:	bf00      	nop
 80008bc:	46bd      	mov	sp, r7
 80008be:	f85d 7b04 	ldr.w	r7, [sp], #4
 80008c2:	4770      	bx	lr

080008c4 <DebugMon_Handler>:

/**
  * @brief This function handles Debug monitor.
  */
void DebugMon_Handler(void)
{
 80008c4:	b480      	push	{r7}
 80008c6:	af00      	add	r7, sp, #0

  /* USER CODE END DebugMonitor_IRQn 0 */
  /* USER CODE BEGIN DebugMonitor_IRQn 1 */

  /* USER CODE END DebugMonitor_IRQn 1 */
}
 80008c8:	bf00      	nop
 80008ca:	46bd      	mov	sp, r7
 80008cc:	f85d 7b04 	ldr.w	r7, [sp], #4
 80008d0:	4770      	bx	lr

080008d2 <PendSV_Handler>:

/**
  * @brief This function handles Pendable request for system service.
  */
void PendSV_Handler(void)
{
 80008d2:	b480      	push	{r7}
 80008d4:	af00      	add	r7, sp, #0

  /* USER CODE END PendSV_IRQn 0 */
  /* USER CODE BEGIN PendSV_IRQn 1 */

  /* USER CODE END PendSV_IRQn 1 */
}
 80008d6:	bf00      	nop
 80008d8:	46bd      	mov	sp, r7
 80008da:	f85d 7b04 	ldr.w	r7, [sp], #4
 80008de:	4770      	bx	lr

080008e0 <SysTick_Handler>:

/**
  * @brief This function handles System tick timer.
  */
void SysTick_Handler(void)
{
 80008e0:	b580      	push	{r7, lr}
 80008e2:	af00      	add	r7, sp, #0
  /* USER CODE BEGIN SysTick_IRQn 0 */

  /* USER CODE END SysTick_IRQn 0 */
  HAL_IncTick();
 80008e4:	f000 f83e 	bl	8000964 <HAL_IncTick>
  /* USER CODE BEGIN SysTick_IRQn 1 */

  /* USER CODE END SysTick_IRQn 1 */
}
 80008e8:	bf00      	nop
 80008ea:	bd80      	pop	{r7, pc}

080008ec <SystemInit>:
  *         configuration.
  * @param  None
  * @retval None
  */
void SystemInit(void)
{
 80008ec:	b480      	push	{r7}
 80008ee:	af00      	add	r7, sp, #0
  /* FPU settings ------------------------------------------------------------*/
  #if (__FPU_PRESENT == 1) && (__FPU_USED == 1)
    SCB->CPACR |= ((3UL << 10*2)|(3UL << 11*2));  /* set CP10 and CP11 Full Access */
 80008f0:	4b06      	ldr	r3, [pc, #24]	; (800090c <SystemInit+0x20>)
 80008f2:	f8d3 3088 	ldr.w	r3, [r3, #136]	; 0x88
 80008f6:	4a05      	ldr	r2, [pc, #20]	; (800090c <SystemInit+0x20>)
 80008f8:	f443 0370 	orr.w	r3, r3, #15728640	; 0xf00000
 80008fc:	f8c2 3088 	str.w	r3, [r2, #136]	; 0x88

  /* Configure the Vector Table location -------------------------------------*/
#if defined(USER_VECT_TAB_ADDRESS)
  SCB->VTOR = VECT_TAB_BASE_ADDRESS | VECT_TAB_OFFSET; /* Vector Table Relocation in Internal SRAM */
#endif /* USER_VECT_TAB_ADDRESS */
}
 8000900:	bf00      	nop
 8000902:	46bd      	mov	sp, r7
 8000904:	f85d 7b04 	ldr.w	r7, [sp], #4
 8000908:	4770      	bx	lr
 800090a:	bf00      	nop
 800090c:	e000ed00 	.word	0xe000ed00

08000910 <Reset_Handler>:

    .section  .text.Reset_Handler
  .weak  Reset_Handler
  .type  Reset_Handler, %function
Reset_Handler:  
  ldr   sp, =_estack      /* set stack pointer */
 8000910:	f8df d034 	ldr.w	sp, [pc, #52]	; 8000948 <LoopFillZerobss+0x12>

/* Copy the data segment initializers from flash to SRAM */  
  ldr r0, =_sdata
 8000914:	480d      	ldr	r0, [pc, #52]	; (800094c <LoopFillZerobss+0x16>)
  ldr r1, =_edata
 8000916:	490e      	ldr	r1, [pc, #56]	; (8000950 <LoopFillZerobss+0x1a>)
  ldr r2, =_sidata
 8000918:	4a0e      	ldr	r2, [pc, #56]	; (8000954 <LoopFillZerobss+0x1e>)
  movs r3, #0
 800091a:	2300      	movs	r3, #0
  b LoopCopyDataInit
 800091c:	e002      	b.n	8000924 <LoopCopyDataInit>

0800091e <CopyDataInit>:

CopyDataInit:
  ldr r4, [r2, r3]
 800091e:	58d4      	ldr	r4, [r2, r3]
  str r4, [r0, r3]
 8000920:	50c4      	str	r4, [r0, r3]
  adds r3, r3, #4
 8000922:	3304      	adds	r3, #4

08000924 <LoopCopyDataInit>:

LoopCopyDataInit:
  adds r4, r0, r3
 8000924:	18c4      	adds	r4, r0, r3
  cmp r4, r1
 8000926:	428c      	cmp	r4, r1
  bcc CopyDataInit
 8000928:	d3f9      	bcc.n	800091e <CopyDataInit>
  
/* Zero fill the bss segment. */
  ldr r2, =_sbss
 800092a:	4a0b      	ldr	r2, [pc, #44]	; (8000958 <LoopFillZerobss+0x22>)
  ldr r4, =_ebss
 800092c:	4c0b      	ldr	r4, [pc, #44]	; (800095c <LoopFillZerobss+0x26>)
  movs r3, #0
 800092e:	2300      	movs	r3, #0
  b LoopFillZerobss
 8000930:	e001      	b.n	8000936 <LoopFillZerobss>

08000932 <FillZerobss>:

FillZerobss:
  str  r3, [r2]
 8000932:	6013      	str	r3, [r2, #0]
  adds r2, r2, #4
 8000934:	3204      	adds	r2, #4

08000936 <LoopFillZerobss>:

LoopFillZerobss:
  cmp r2, r4
 8000936:	42a2      	cmp	r2, r4
  bcc FillZerobss
 8000938:	d3fb      	bcc.n	8000932 <FillZerobss>

/* Call the clock system intitialization function.*/
  bl  SystemInit   
 800093a:	f7ff ffd7 	bl	80008ec <SystemInit>
/* Call static constructors */
    bl __libc_init_array
 800093e:	f000 f825 	bl	800098c <__libc_init_array>
/* Call the application's entry point.*/
  bl  main
 8000942:	f7ff ff5f 	bl	8000804 <main>
  bx  lr    
 8000946:	4770      	bx	lr
  ldr   sp, =_estack      /* set stack pointer */
 8000948:	20010000 	.word	0x20010000
  ldr r0, =_sdata
 800094c:	20000000 	.word	0x20000000
  ldr r1, =_edata
 8000950:	2000003c 	.word	0x2000003c
  ldr r2, =_sidata
 8000954:	080009f4 	.word	0x080009f4
  ldr r2, =_sbss
 8000958:	2000003c 	.word	0x2000003c
  ldr r4, =_ebss
 800095c:	2000037c 	.word	0x2000037c

08000960 <ADC_IRQHandler>:
 * @retval None       
*/
    .section  .text.Default_Handler,"ax",%progbits
Default_Handler:
Infinite_Loop:
  b  Infinite_Loop
 8000960:	e7fe      	b.n	8000960 <ADC_IRQHandler>
	...

08000964 <HAL_IncTick>:
 * @note This function is declared as __weak to be overwritten in case of other 
  *      implementations in user file.
  * @retval None
  */
__weak void HAL_IncTick(void)
{
 8000964:	b480      	push	{r7}
 8000966:	af00      	add	r7, sp, #0
  uwTick += uwTickFreq;
 8000968:	4b06      	ldr	r3, [pc, #24]	; (8000984 <HAL_IncTick+0x20>)
 800096a:	781b      	ldrb	r3, [r3, #0]
 800096c:	461a      	mov	r2, r3
 800096e:	4b06      	ldr	r3, [pc, #24]	; (8000988 <HAL_IncTick+0x24>)
 8000970:	681b      	ldr	r3, [r3, #0]
 8000972:	4413      	add	r3, r2
 8000974:	4a04      	ldr	r2, [pc, #16]	; (8000988 <HAL_IncTick+0x24>)
 8000976:	6013      	str	r3, [r2, #0]
}
 8000978:	bf00      	nop
 800097a:	46bd      	mov	sp, r7
 800097c:	f85d 7b04 	ldr.w	r7, [sp], #4
 8000980:	4770      	bx	lr
 8000982:	bf00      	nop
 8000984:	20000038 	.word	0x20000038
 8000988:	20000378 	.word	0x20000378

0800098c <__libc_init_array>:
 800098c:	b570      	push	{r4, r5, r6, lr}
 800098e:	4d0d      	ldr	r5, [pc, #52]	; (80009c4 <__libc_init_array+0x38>)
 8000990:	4c0d      	ldr	r4, [pc, #52]	; (80009c8 <__libc_init_array+0x3c>)
 8000992:	1b64      	subs	r4, r4, r5
 8000994:	10a4      	asrs	r4, r4, #2
 8000996:	2600      	movs	r6, #0
 8000998:	42a6      	cmp	r6, r4
 800099a:	d109      	bne.n	80009b0 <__libc_init_array+0x24>
 800099c:	4d0b      	ldr	r5, [pc, #44]	; (80009cc <__libc_init_array+0x40>)
 800099e:	4c0c      	ldr	r4, [pc, #48]	; (80009d0 <__libc_init_array+0x44>)
 80009a0:	f000 f818 	bl	80009d4 <_init>
 80009a4:	1b64      	subs	r4, r4, r5
 80009a6:	10a4      	asrs	r4, r4, #2
 80009a8:	2600      	movs	r6, #0
 80009aa:	42a6      	cmp	r6, r4
 80009ac:	d105      	bne.n	80009ba <__libc_init_array+0x2e>
 80009ae:	bd70      	pop	{r4, r5, r6, pc}
 80009b0:	f855 3b04 	ldr.w	r3, [r5], #4
 80009b4:	4798      	blx	r3
 80009b6:	3601      	adds	r6, #1
 80009b8:	e7ee      	b.n	8000998 <__libc_init_array+0xc>
 80009ba:	f855 3b04 	ldr.w	r3, [r5], #4
 80009be:	4798      	blx	r3
 80009c0:	3601      	adds	r6, #1
 80009c2:	e7f2      	b.n	80009aa <__libc_init_array+0x1e>
 80009c4:	080009ec 	.word	0x080009ec
 80009c8:	080009ec 	.word	0x080009ec
 80009cc:	080009ec 	.word	0x080009ec
 80009d0:	080009f0 	.word	0x080009f0

080009d4 <_init>:
 80009d4:	b5f8      	push	{r3, r4, r5, r6, r7, lr}
 80009d6:	bf00      	nop
 80009d8:	bcf8      	pop	{r3, r4, r5, r6, r7}
 80009da:	bc08      	pop	{r3}
 80009dc:	469e      	mov	lr, r3
 80009de:	4770      	bx	lr

080009e0 <_fini>:
 80009e0:	b5f8      	push	{r3, r4, r5, r6, r7, lr}
 80009e2:	bf00      	nop
 80009e4:	bcf8      	pop	{r3, r4, r5, r6, r7}
 80009e6:	bc08      	pop	{r3}
 80009e8:	469e      	mov	lr, r3
 80009ea:	4770      	bx	lr
